target datalayout = "e-m:e-p270:32:32-p271:32:32-p272:64:64-i64:64-i128:128-f80:128-n8:16:32:64-S128"
target triple = "x86_64-pc-linux-gnu"

%struct.event_base = type { ptr, ptr, %struct.event_changelist, ptr, %struct.evsig_info, i32, i32, i32, i32, i32, i32, i32, i32, i32, i32, i32, i32, ptr, i32, %struct.evcallback_list, ptr, i32, i32, %struct.event_signal_map, %struct.event_signal_map, %struct.min_heap, %struct.timeval, %struct.evutil_monotonic_timer, %struct.timeval, i64, i64, ptr, ptr, i32, ptr, i32, %struct.timeval, i32, i32, i32, [2 x i32], %struct.event, ptr, %struct.evutil_weakrand_state, %struct.once_event_list, [2 x %struct.evwatch_list] }
%struct.event_changelist = type { ptr, i32, i32 }
%struct.evsig_info = type { %struct.event, [2 x i32], i32, i32, [65 x ptr], ptr, i32 }
%struct.evcallback_list = type { ptr, ptr }
%struct.event_signal_map = type { ptr, i32 }
%struct.min_heap = type { ptr, i64, i64 }
%struct.evutil_monotonic_timer = type { i32, %struct.timeval, %struct.timeval }
%struct.timeval = type { i64, i64 }
%struct.event = type { %struct.event_callback, %union.anon.0, i32, i16, i16, ptr, %union.anon.2, %struct.timeval }
%struct.event_callback = type { %struct.anon, i16, i8, i8, %union.anon, ptr }
%struct.anon = type { ptr, ptr }
%union.anon = type { ptr }
%union.anon.0 = type { %struct.anon.1 }
%struct.anon.1 = type { ptr, ptr }
%union.anon.2 = type { %struct.anon.3 }
%struct.anon.3 = type { %struct.anon.4, %struct.timeval }
%struct.anon.4 = type { ptr, ptr }
%struct.evutil_weakrand_state = type { i32 }
%struct.once_event_list = type { ptr }
%struct.evwatch_list = type { ptr, ptr }
%struct.pollop = type { i32, i32, i32, ptr, ptr }
%struct.pollidx = type { i32 }
%struct.pollfd = type { i32, i16, i16 }

@.str.1 = private unnamed_addr constant [8 x i8] c"realloc\00", align 1

; Function Attrs: nounwind uwtable
define internal i32 @poll_add(ptr noundef %0, i32 noundef %1, i16 noundef signext %2, i16 noundef signext %3, ptr noundef %4) #0 {
  %6 = alloca i32, align 4
  %7 = alloca ptr, align 8
  %8 = alloca i32, align 4
  %9 = alloca i16, align 2
  %10 = alloca i16, align 2
  %11 = alloca ptr, align 8
  %12 = alloca ptr, align 8
  %13 = alloca ptr, align 8
  %14 = alloca ptr, align 8
  %15 = alloca i32, align 4
  %16 = alloca i32, align 4
  %17 = alloca ptr, align 8
  %18 = alloca i32, align 4
  store ptr %0, ptr %7, align 8
  store i32 %1, ptr %8, align 4
  store i16 %2, ptr %9, align 2
  store i16 %3, ptr %10, align 2
  store ptr %4, ptr %11, align 8
  call void @llvm.lifetime.start.p0(i64 8, ptr %12) #6
  %19 = load ptr, ptr %7, align 8
  %20 = getelementptr inbounds nuw %struct.event_base, ptr %19, i32 0, i32 1
  %21 = load ptr, ptr %20, align 8
  store ptr %21, ptr %12, align 8
  call void @llvm.lifetime.start.p0(i64 8, ptr %13) #6
  store ptr null, ptr %13, align 8
  call void @llvm.lifetime.start.p0(i64 8, ptr %14) #6
  %22 = load ptr, ptr %11, align 8
  store ptr %22, ptr %14, align 8
  call void @llvm.lifetime.start.p0(i64 4, ptr %15) #6
  br label %23

23:                                               ; preds = %5
  br label %24

24:                                               ; preds = %23
  br label %25

25:                                               ; preds = %24
  %26 = load i16, ptr %10, align 2
  %27 = sext i16 %26 to i32
  %28 = and i32 %27, 134
  %29 = icmp ne i32 %28, 0
  br i1 %29, label %31, label %30

30:                                               ; preds = %25
  store i32 0, ptr %6, align 4
  store i32 1, ptr %16, align 4
  br label %147

31:                                               ; preds = %25
  %32 = load ptr, ptr %12, align 8
  %33 = getelementptr inbounds nuw %struct.pollop, ptr %32, i32 0, i32 1
  %34 = load i32, ptr %33, align 4
  %35 = add nsw i32 %34, 1
  %36 = load ptr, ptr %12, align 8
  %37 = getelementptr inbounds nuw %struct.pollop, ptr %36, i32 0, i32 0
  %38 = load i32, ptr %37, align 8
  %39 = icmp sge i32 %35, %38
  br i1 %39, label %40, label %74

40:                                               ; preds = %31
  call void @llvm.lifetime.start.p0(i64 8, ptr %17) #6
  call void @llvm.lifetime.start.p0(i64 4, ptr %18) #6
  %41 = load ptr, ptr %12, align 8
  %42 = getelementptr inbounds nuw %struct.pollop, ptr %41, i32 0, i32 0
  %43 = load i32, ptr %42, align 8
  %44 = icmp slt i32 %43, 32
  br i1 %44, label %45, label %46

45:                                               ; preds = %40
  store i32 32, ptr %18, align 4
  br label %51

46:                                               ; preds = %40
  %47 = load ptr, ptr %12, align 8
  %48 = getelementptr inbounds nuw %struct.pollop, ptr %47, i32 0, i32 0
  %49 = load i32, ptr %48, align 8
  %50 = mul nsw i32 %49, 2
  store i32 %50, ptr %18, align 4
  br label %51

51:                                               ; preds = %46, %45
  %52 = load ptr, ptr %12, align 8
  %53 = getelementptr inbounds nuw %struct.pollop, ptr %52, i32 0, i32 3
  %54 = load ptr, ptr %53, align 8
  %55 = load i32, ptr %18, align 4
  %56 = sext i32 %55 to i64
  %57 = mul i64 %56, 8
  %58 = call ptr @event_mm_realloc_(ptr noundef %54, i64 noundef %57)
  store ptr %58, ptr %17, align 8
  %59 = load ptr, ptr %17, align 8
  %60 = icmp eq ptr %59, null
  br i1 %60, label %61, label %62

61:                                               ; preds = %51
  call void (ptr, ...) @event_warn(ptr noundef @.str.1)
  store i32 -1, ptr %6, align 4
  store i32 1, ptr %16, align 4
  br label %71

62:                                               ; preds = %51
  %63 = load ptr, ptr %17, align 8
  %64 = load ptr, ptr %12, align 8
  %65 = getelementptr inbounds nuw %struct.pollop, ptr %64, i32 0, i32 3
  store ptr %63, ptr %65, align 8
  %66 = load i32, ptr %18, align 4
  %67 = load ptr, ptr %12, align 8
  %68 = getelementptr inbounds nuw %struct.pollop, ptr %67, i32 0, i32 0
  store i32 %66, ptr %68, align 8
  %69 = load ptr, ptr %12, align 8
  %70 = getelementptr inbounds nuw %struct.pollop, ptr %69, i32 0, i32 2
  store i32 1, ptr %70, align 8
  store i32 0, ptr %16, align 4
  br label %71

71:                                               ; preds = %62, %61
  call void @llvm.lifetime.end.p0(i64 4, ptr %18) #6
  call void @llvm.lifetime.end.p0(i64 8, ptr %17) #6
  %72 = load i32, ptr %16, align 4
  switch i32 %72, label %147 [
    i32 0, label %73
  ]

73:                                               ; preds = %71
  br label %74

74:                                               ; preds = %73, %31
  %75 = load ptr, ptr %14, align 8
  %76 = getelementptr inbounds nuw %struct.pollidx, ptr %75, i32 0, i32 0
  %77 = load i32, ptr %76, align 4
  %78 = sub nsw i32 %77, 1
  store i32 %78, ptr %15, align 4
  %79 = load i32, ptr %15, align 4
  %80 = icmp sge i32 %79, 0
  br i1 %80, label %81, label %88

81:                                               ; preds = %74
  %82 = load ptr, ptr %12, align 8
  %83 = getelementptr inbounds nuw %struct.pollop, ptr %82, i32 0, i32 3
  %84 = load ptr, ptr %83, align 8
  %85 = load i32, ptr %15, align 4
  %86 = sext i32 %85 to i64
  %87 = getelementptr inbounds %struct.pollfd, ptr %84, i64 %86
  store ptr %87, ptr %13, align 8
  br label %108

88:                                               ; preds = %74
  %89 = load ptr, ptr %12, align 8
  %90 = getelementptr inbounds nuw %struct.pollop, ptr %89, i32 0, i32 1
  %91 = load i32, ptr %90, align 4
  %92 = add nsw i32 %91, 1
  store i32 %92, ptr %90, align 4
  store i32 %91, ptr %15, align 4
  %93 = load ptr, ptr %12, align 8
  %94 = getelementptr inbounds nuw %struct.pollop, ptr %93, i32 0, i32 3
  %95 = load ptr, ptr %94, align 8
  %96 = load i32, ptr %15, align 4
  %97 = sext i32 %96 to i64
  %98 = getelementptr inbounds %struct.pollfd, ptr %95, i64 %97
  store ptr %98, ptr %13, align 8
  %99 = load ptr, ptr %13, align 8
  %100 = getelementptr inbounds nuw %struct.pollfd, ptr %99, i32 0, i32 1
  store i16 0, ptr %100, align 4
  %101 = load i32, ptr %8, align 4
  %102 = load ptr, ptr %13, align 8
  %103 = getelementptr inbounds nuw %struct.pollfd, ptr %102, i32 0, i32 0
  store i32 %101, ptr %103, align 4
  %104 = load i32, ptr %15, align 4
  %105 = add nsw i32 %104, 1
  %106 = load ptr, ptr %14, align 8
  %107 = getelementptr inbounds nuw %struct.pollidx, ptr %106, i32 0, i32 0
  store i32 %105, ptr %107, align 4
  br label %108

108:                                              ; preds = %88, %81
  %109 = load ptr, ptr %13, align 8
  %110 = getelementptr inbounds nuw %struct.pollfd, ptr %109, i32 0, i32 2
  store i16 0, ptr %110, align 2
  %111 = load i16, ptr %10, align 2
  %112 = sext i16 %111 to i32
  %113 = and i32 %112, 4
  %114 = icmp ne i32 %113, 0
  br i1 %114, label %115, label %122

115:                                              ; preds = %108
  %116 = load ptr, ptr %13, align 8
  %117 = getelementptr inbounds nuw %struct.pollfd, ptr %116, i32 0, i32 1
  %118 = load i16, ptr %117, align 4
  %119 = sext i16 %118 to i32
  %120 = or i32 %119, 4
  %121 = trunc i32 %120 to i16
  store i16 %121, ptr %117, align 4
  br label %122

122:                                              ; preds = %115, %108
  %123 = load i16, ptr %10, align 2
  %124 = sext i16 %123 to i32
  %125 = and i32 %124, 2
  %126 = icmp ne i32 %125, 0
  br i1 %126, label %127, label %134

127:                                              ; preds = %122
  %128 = load ptr, ptr %13, align 8
  %129 = getelementptr inbounds nuw %struct.pollfd, ptr %128, i32 0, i32 1
  %130 = load i16, ptr %129, align 4
  %131 = sext i16 %130 to i32
  %132 = or i32 %131, 1
  %133 = trunc i32 %132 to i16
  store i16 %133, ptr %129, align 4
  br label %134

134:                                              ; preds = %127, %122
  %135 = load i16, ptr %10, align 2
  %136 = sext i16 %135 to i32
  %137 = and i32 %136, 128
  %138 = icmp ne i32 %137, 0
  br i1 %138, label %139, label %146

139:                                              ; preds = %134
  %140 = load ptr, ptr %13, align 8
  %141 = getelementptr inbounds nuw %struct.pollfd, ptr %140, i32 0, i32 1
  %142 = load i16, ptr %141, align 4
  %143 = sext i16 %142 to i32
  %144 = or i32 %143, 8192
  %145 = trunc i32 %144 to i16
  store i16 %145, ptr %141, align 4
  br label %146

146:                                              ; preds = %139, %134
  store i32 0, ptr %6, align 4
  store i32 1, ptr %16, align 4
  br label %147

147:                                              ; preds = %146, %71, %30
  call void @llvm.lifetime.end.p0(i64 4, ptr %15) #6
  call void @llvm.lifetime.end.p0(i64 8, ptr %14) #6
  call void @llvm.lifetime.end.p0(i64 8, ptr %13) #6
  call void @llvm.lifetime.end.p0(i64 8, ptr %12) #6
  %148 = load i32, ptr %6, align 4
  ret i32 %148
}