; Function Attrs: nounwind uwtable
define internal range(i32 -1, 1) i32 @poll_add(ptr noundef readonly captures(none) %0, i32 noundef %1, i16 signext %2, i16 noundef signext %3, ptr noundef captures(none) %4) #0 {
  %6 = getelementptr inbounds nuw i8, ptr %0, i64 8
  %7 = load ptr, ptr %6, align 8
  %8 = and i16 %3, 134
  %.not = icmp eq i16 %8, 0
  br i1 %.not, label %60, label %9

9:                                                ; preds = %5
  %10 = getelementptr inbounds nuw i8, ptr %7, i64 4
  %11 = load i32, ptr %10, align 4
  %12 = add nsw i32 %11, 1
  %13 = load i32, ptr %7, align 8
  %.not41 = icmp slt i32 %12, %13
  br i1 %.not41, label %24, label %14

14:                                               ; preds = %9
  %15 = icmp slt i32 %13, 32
  %16 = shl nuw nsw i32 %13, 1
  %.0 = select i1 %15, i32 32, i32 %16
  %17 = getelementptr inbounds nuw i8, ptr %7, i64 16
  %18 = load ptr, ptr %17, align 8
  %19 = zext nneg i32 %.0 to i64
  %20 = shl nuw nsw i64 %19, 3
  %21 = tail call ptr @event_mm_realloc_(ptr noundef %18, i64 noundef %20) #6
  %.not42 = icmp eq ptr %21, null
  br i1 %.not42, label %.thread, label %22

.thread:                                          ; preds = %14
  tail call void (ptr, ...) @event_warn(ptr noundef nonnull @.str.1) #6
  br label %60

22:                                               ; preds = %14
  store ptr %21, ptr %17, align 8
  store i32 %.0, ptr %7, align 8
  %23 = getelementptr inbounds nuw i8, ptr %7, i64 8
  store i32 1, ptr %23, align 8
  br label %24

24:                                               ; preds = %22, %9
  %25 = load i32, ptr %4, align 4
  %26 = icmp sgt i32 %25, 0
  br i1 %26, label %27, label %33

27:                                               ; preds = %24
  %28 = getelementptr inbounds nuw i8, ptr %7, i64 16
  %29 = load ptr, ptr %28, align 8
  %30 = zext nneg i32 %25 to i64
  %31 = getelementptr %struct.pollfd, ptr %29, i64 %30
  %32 = getelementptr i8, ptr %31, i64 -8
  br label %41

33:                                               ; preds = %24
  %34 = load i32, ptr %10, align 4
  %35 = add nsw i32 %34, 1
  store i32 %35, ptr %10, align 4
  %36 = getelementptr inbounds nuw i8, ptr %7, i64 16
  %37 = load ptr, ptr %36, align 8
  %38 = sext i32 %34 to i64
  %39 = getelementptr inbounds %struct.pollfd, ptr %37, i64 %38
  %40 = getelementptr inbounds nuw i8, ptr %39, i64 4
  store i16 0, ptr %40, align 4
  store i32 %1, ptr %39, align 4
  store i32 %35, ptr %4, align 4
  br label %41

41:                                               ; preds = %33, %27
  %.037 = phi ptr [ %32, %27 ], [ %39, %33 ]
  %42 = getelementptr inbounds nuw i8, ptr %.037, i64 6
  store i16 0, ptr %42, align 2
  %43 = and i16 %3, 4
  %.not43 = icmp eq i16 %43, 0
  br i1 %.not43, label %48, label %44

44:                                               ; preds = %41
  %45 = getelementptr inbounds nuw i8, ptr %.037, i64 4
  %46 = load i16, ptr %45, align 4
  %47 = or i16 %46, 4
  store i16 %47, ptr %45, align 4
  br label %48

48:                                               ; preds = %44, %41
  %49 = and i16 %3, 2
  %.not44 = icmp eq i16 %49, 0
  br i1 %.not44, label %54, label %50

50:                                               ; preds = %48
  %51 = getelementptr inbounds nuw i8, ptr %.037, i64 4
  %52 = load i16, ptr %51, align 4
  %53 = or i16 %52, 1
  store i16 %53, ptr %51, align 4
  br label %54

54:                                               ; preds = %50, %48
  %55 = and i16 %3, 128
  %.not45 = icmp eq i16 %55, 0
  br i1 %.not45, label %60, label %56

56:                                               ; preds = %54
  %57 = getelementptr inbounds nuw i8, ptr %.037, i64 4
  %58 = load i16, ptr %57, align 4
  %59 = or i16 %58, 8192
  store i16 %59, ptr %57, align 4
  br label %60

60:                                               ; preds = %.thread, %54, %56, %5
  %.035 = phi i32 [ 0, %5 ], [ 0, %56 ], [ 0, %54 ], [ -1, %.thread ]
  ret i32 %.035
}